target datalayout = "e-m:e-p270:32:32-p271:32:32-p272:64:64-i64:64-i128:128-f80:128-n8:16:32:64-S128"
target triple = "x86_64-pc-linux-gnu"

%"class.fmt::v11::basic_string_view" = type { ptr, i64 }
%"class.fmt::v11::buffered_file" = type { ptr }
%"class.std::system_error" = type { %"class.std::runtime_error", %"class.std::error_code" }
%"class.std::runtime_error" = type { %"class.std::exception", %"struct.std::__cow_string" }
%"class.std::exception" = type { ptr }
%"struct.std::__cow_string" = type { %union.anon }
%union.anon = type { ptr }
%"class.std::error_code" = type { i32, ptr }
%"struct.fmt::v11::fstring.0" = type { %"class.fmt::v11::basic_string_view" }
%"class.fmt::v11::file" = type { i32 }
%struct.FMT_COMPILE_STRING.30 = type { i8 }
%class.anon.31 = type { i8 }

@_ZTISt12system_error = external constant ptr
@.str.53 = private unnamed_addr constant [45 x i8] c"cannot associate stream with file descriptor\00", align 1
@__const.fstring.sv.68 = private unnamed_addr constant %"class.fmt::v11::basic_string_view" { ptr @.str.53, i64 44 }, align 8
@_ZN3fmt3v1113buffered_fileD1Ev = hidden unnamed_addr alias void (ptr), ptr @_ZN3fmt3v1113buffered_fileD2Ev

; Function Attrs: mustprogress nounwind uwtable
define linkonce_odr hidden void @_ZN3fmt3v1117basic_string_viewIcEC2EPKcm(ptr noundef nonnull align 8 dereferenceable(16) %0, ptr noundef %1, i64 noundef %2) unnamed_addr #0 comdat align 2 {
  %4 = alloca ptr, align 8
  %5 = alloca ptr, align 8
  %6 = alloca i64, align 8
  store ptr %0, ptr %4, align 8, !tbaa !127
  store ptr %1, ptr %5, align 8, !tbaa !14
  store i64 %2, ptr %6, align 8, !tbaa !25
  %7 = load ptr, ptr %4, align 8
  %8 = getelementptr inbounds nuw %"class.fmt::v11::basic_string_view", ptr %7, i32 0, i32 0
  %9 = load ptr, ptr %5, align 8, !tbaa !14
  store ptr %9, ptr %8, align 8, !tbaa !129
  %10 = getelementptr inbounds nuw %"class.fmt::v11::basic_string_view", ptr %7, i32 0, i32 1
  %11 = load i64, ptr %6, align 8, !tbaa !25
  store i64 %11, ptr %10, align 8, !tbaa !131
  ret void
}

; Function Attrs: mustprogress nounwind uwtable
define linkonce_odr hidden noundef i32 @_ZNSt11char_traitsIcE11to_int_typeERKc(ptr noundef nonnull align 1 dereferenceable(1) %0) #0 comdat align 2 {
  %2 = alloca ptr, align 8
  store ptr %0, ptr %2, align 8, !tbaa !14
  %3 = load ptr, ptr %2, align 8, !tbaa !14
  %4 = load i8, ptr %3, align 1, !tbaa !132
  %5 = zext i8 %4 to i32
  ret i32 %5
}

; Function Attrs: mustprogress nounwind uwtable
define linkonce_odr hidden { ptr, i64 } @_ZN3fmt3v116detail22compile_string_to_viewIcLm45EEENS0_17basic_string_viewIT_EERAT0__KS4_(ptr noundef nonnull align 1 dereferenceable(45) %0) #0 comdat {
  %2 = alloca %"class.fmt::v11::basic_string_view", align 8
  %3 = alloca ptr, align 8
  store ptr %0, ptr %3, align 8, !tbaa !14
  %4 = load ptr, ptr %3, align 8, !tbaa !14
  %5 = getelementptr inbounds [45 x i8], ptr %4, i64 0, i64 0
  %6 = load ptr, ptr %3, align 8, !tbaa !14
  %7 = getelementptr inbounds nuw [45 x i8], ptr %6, i64 0, i64 44
  %8 = call noundef i32 @_ZNSt11char_traitsIcE11to_int_typeERKc(ptr noundef nonnull align 1 dereferenceable(1) %7) #27
  %9 = icmp eq i32 %8, 0
  %10 = select i1 %9, i32 1, i32 0
  %11 = sext i32 %10 to i64
  %12 = sub i64 45, %11
  call void @_ZN3fmt3v1117basic_string_viewIcEC2EPKcm(ptr noundef nonnull align 8 dereferenceable(16) %2, ptr noundef %5, i64 noundef %12) #27
  %13 = load { ptr, i64 }, ptr %2, align 8
  ret { ptr, i64 } %13
}

; Function Attrs: mustprogress nounwind uwtable
define linkonce_odr hidden void @_ZN3fmt3v116detail13ignore_unusedIJiEEEvDpRKT_(ptr noundef nonnull align 4 dereferenceable(4) %0) #0 comdat {
  %2 = alloca ptr, align 8
  store ptr %0, ptr %2, align 8, !tbaa !60
  ret void
}

; Function Attrs: mustprogress nounwind uwtable
define linkonce_odr hidden void @_ZN3fmt3v116detail13ignore_unusedIJNS0_17basic_string_viewIcEEEEEvDpRKT_(ptr noundef nonnull align 8 dereferenceable(16) %0) #0 comdat {
  %2 = alloca ptr, align 8
  store ptr %0, ptr %2, align 8, !tbaa !127
  ret void
}

; Function Attrs: mustprogress uwtable
define internal { ptr, i64 } @"_ZZZN3fmt3v114file6fdopenEPKcENK3$_0clEvENK18FMT_COMPILE_STRINGcvNS0_17basic_string_viewIcEEEv"(ptr noundef nonnull align 1 dereferenceable(1) %0) #5 align 2 {
  %2 = alloca %"class.fmt::v11::basic_string_view", align 8
  %3 = alloca ptr, align 8
  store ptr %0, ptr %3, align 8, !tbaa !81
  %4 = call { ptr, i64 } @_ZN3fmt3v116detail22compile_string_to_viewIcLm45EEENS0_17basic_string_viewIT_EERAT0__KS4_(ptr noundef nonnull align 1 dereferenceable(45) @.str.53)
  %5 = getelementptr inbounds nuw { ptr, i64 }, ptr %2, i32 0, i32 0
  %6 = extractvalue { ptr, i64 } %4, 0
  store ptr %6, ptr %5, align 8
  %7 = getelementptr inbounds nuw { ptr, i64 }, ptr %2, i32 0, i32 1
  %8 = extractvalue { ptr, i64 } %4, 1
  store i64 %8, ptr %7, align 8
  %9 = load { ptr, i64 }, ptr %2, align 8
  ret { ptr, i64 } %9
}

; Function Attrs: inlinehint mustprogress nounwind uwtable
define linkonce_odr hidden void @_ZN3fmt3v1113buffered_fileC2EP8_IO_FILE(ptr noundef nonnull align 8 dereferenceable(8) %0, ptr noundef %1) unnamed_addr #3 comdat align 2 {
  %3 = alloca ptr, align 8
  %4 = alloca ptr, align 8
  store ptr %0, ptr %3, align 8, !tbaa !4
  store ptr %1, ptr %4, align 8, !tbaa !80
  %5 = load ptr, ptr %3, align 8
  %6 = getelementptr inbounds nuw %"class.fmt::v11::buffered_file", ptr %5, i32 0, i32 0
  %7 = load ptr, ptr %4, align 8, !tbaa !80
  store ptr %7, ptr %6, align 8, !tbaa !9
  ret void
}

; Function Attrs: alwaysinline mustprogress uwtable
define internal void @"_ZN3fmt3v117fstringIJEEC2IZZNS0_4file6fdopenEPKcENK3$_0clEvE18FMT_COMPILE_STRINGTnNSt9enable_ifIXaasr3std10is_base_ofINS0_6detail14compile_stringET_EE5valuesr3std7is_sameINSC_9char_typeEcEE5valueEiE4typeELi0EEERKSC_"(ptr noundef nonnull align 8 dereferenceable(16) %0, ptr noundef nonnull align 1 dereferenceable(1) %1) unnamed_addr #8 align 2 {
  %3 = alloca ptr, align 8
  %4 = alloca ptr, align 8
  %5 = alloca %struct.FMT_COMPILE_STRING.30, align 1
  %6 = alloca %"class.fmt::v11::basic_string_view", align 8
  %7 = alloca i32, align 4
  store ptr %0, ptr %3, align 8, !tbaa !32
  store ptr %1, ptr %4, align 8, !tbaa !81
  %8 = load ptr, ptr %3, align 8
  call void @llvm.lifetime.start.p0(i64 1, ptr %5) #27
  %9 = call { ptr, i64 } @"_ZZZN3fmt3v114file6fdopenEPKcENK3$_0clEvENK18FMT_COMPILE_STRINGcvNS0_17basic_string_viewIcEEEv"(ptr noundef nonnull align 1 dereferenceable(1) %5)
  %10 = getelementptr inbounds nuw { ptr, i64 }, ptr %8, i32 0, i32 0
  %11 = extractvalue { ptr, i64 } %9, 0
  store ptr %11, ptr %10, align 8
  %12 = getelementptr inbounds nuw { ptr, i64 }, ptr %8, i32 0, i32 1
  %13 = extractvalue { ptr, i64 } %9, 1
  store i64 %13, ptr %12, align 8
  call void @llvm.lifetime.end.p0(i64 1, ptr %5) #27
  call void @llvm.lifetime.start.p0(i64 16, ptr %6) #27
  call void @llvm.memcpy.p0.p0.i64(ptr align 8 %6, ptr align 8 @__const.fstring.sv.68, i64 16, i1 false)
  call void @llvm.lifetime.start.p0(i64 4, ptr %7) #27
  store i32 0, ptr %7, align 4, !tbaa !12
  call void @_ZN3fmt3v116detail13ignore_unusedIJiEEEvDpRKT_(ptr noundef nonnull align 4 dereferenceable(4) %7)
  call void @llvm.lifetime.end.p0(i64 4, ptr %7) #27
  call void @llvm.lifetime.end.p0(i64 16, ptr %6) #27
  ret void
}

; Function Attrs: inlinehint mustprogress uwtable
define internal void @"_ZZN3fmt3v114file6fdopenEPKcENK3$_0clEv"(ptr noundef nonnull align 1 dereferenceable(1) %0) #7 align 2 {
  %2 = alloca ptr, align 8
  %3 = alloca %"class.fmt::v11::basic_string_view", align 8
  %4 = alloca %struct.FMT_COMPILE_STRING.30, align 1
  store ptr %0, ptr %2, align 8, !tbaa !27
  call void @llvm.lifetime.start.p0(i64 16, ptr %3) #27
  call void @llvm.lifetime.start.p0(i64 1, ptr %4) #27
  %5 = call { ptr, i64 } @"_ZZZN3fmt3v114file6fdopenEPKcENK3$_0clEvENK18FMT_COMPILE_STRINGcvNS0_17basic_string_viewIcEEEv"(ptr noundef nonnull align 1 dereferenceable(1) %4)
  %6 = getelementptr inbounds nuw { ptr, i64 }, ptr %3, i32 0, i32 0
  %7 = extractvalue { ptr, i64 } %5, 0
  store ptr %7, ptr %6, align 8
  %8 = getelementptr inbounds nuw { ptr, i64 }, ptr %3, i32 0, i32 1
  %9 = extractvalue { ptr, i64 } %5, 1
  store i64 %9, ptr %8, align 8
  call void @_ZN3fmt3v116detail13ignore_unusedIJNS0_17basic_string_viewIcEEEEEvDpRKT_(ptr noundef nonnull align 8 dereferenceable(16) %3)
  call void @llvm.lifetime.end.p0(i64 1, ptr %4) #27
  call void @llvm.lifetime.end.p0(i64 16, ptr %3) #27
  ret void
}

; Function Attrs: mustprogress uwtable
define hidden void @_ZN3fmt3v114file6fdopenEPKc(ptr dead_on_unwind noalias writable sret(%"class.fmt::v11::buffered_file") align 8 %0, ptr noundef nonnull align 4 dereferenceable(4) %1, ptr noundef %2) #5 align 2 personality ptr @__gxx_personality_v0 {
  %4 = alloca ptr, align 8
  %5 = alloca ptr, align 8
  %6 = alloca ptr, align 8
  %7 = alloca ptr, align 8
  %8 = alloca %"struct.fmt::v11::fstring.0", align 8
  %9 = alloca %struct.FMT_COMPILE_STRING.30, align 1
  %10 = alloca %class.anon.31, align 1
  %11 = alloca ptr, align 8
  %12 = alloca i32, align 4
  %13 = alloca i1, align 1
  %14 = alloca i1, align 1
  store ptr %0, ptr %4, align 8
  store ptr %1, ptr %5, align 8, !tbaa !38
  store ptr %2, ptr %6, align 8, !tbaa !14
  %15 = load ptr, ptr %5, align 8
  call void @llvm.lifetime.start.p0(i64 8, ptr %7) #27
  %16 = getelementptr inbounds nuw %"class.fmt::v11::file", ptr %15, i32 0, i32 0
  %17 = load i32, ptr %16, align 4, !tbaa !40
  %18 = load ptr, ptr %6, align 8, !tbaa !14
  %19 = call noalias ptr @fdopen(i32 noundef %17, ptr noundef %18) #27
  store ptr %19, ptr %7, align 8, !tbaa !80
  %20 = load ptr, ptr %7, align 8, !tbaa !80
  %21 = icmp ne ptr %20, null
  br i1 %21, label %40, label %22

22:                                               ; preds = %3
  store i1 true, ptr %13, align 1
  %23 = call ptr @__cxa_allocate_exception(i64 32) #27
  %24 = call ptr @__errno_location() #26
  %25 = load i32, ptr %24, align 4, !tbaa !12
  call void @llvm.lifetime.start.p0(i64 1, ptr %9) #27
  call void @llvm.lifetime.start.p0(i64 1, ptr %10) #27
  invoke void @"_ZZN3fmt3v114file6fdopenEPKcENK3$_0clEv"(ptr noundef nonnull align 1 dereferenceable(1) %10)
          to label %26 unwind label %33

26:                                               ; preds = %22
  invoke void @"_ZN3fmt3v117fstringIJEEC2IZZNS0_4file6fdopenEPKcENK3$_0clEvE18FMT_COMPILE_STRINGTnNSt9enable_ifIXaasr3std10is_base_ofINS0_6detail14compile_stringET_EE5valuesr3std7is_sameINSC_9char_typeEcEE5valueEiE4typeELi0EEERKSC_"(ptr noundef nonnull align 8 dereferenceable(16) %8, ptr noundef nonnull align 1 dereferenceable(1) %9)
          to label %27 unwind label %33

27:                                               ; preds = %26
  %28 = getelementptr inbounds nuw { ptr, i64 }, ptr %8, i32 0, i32 0
  %29 = load ptr, ptr %28, align 8
  %30 = getelementptr inbounds nuw { ptr, i64 }, ptr %8, i32 0, i32 1
  %31 = load i64, ptr %30, align 8
  invoke void @_ZN3fmt3v1112system_errorIJEEESt12system_erroriNS0_7fstringIJDpT_EE1tEDpOS4_(ptr dead_on_unwind writable sret(%"class.std::system_error") align 8 %23, i32 noundef %25, ptr %29, i64 %31)
          to label %32 unwind label %33

32:                                               ; preds = %27
  store i1 false, ptr %13, align 1
  invoke void @__cxa_throw(ptr %23, ptr @_ZTISt12system_error, ptr @_ZNSt12system_errorD1Ev) #29
          to label %51 unwind label %33

33:                                               ; preds = %32, %27, %26, %22
  %34 = landingpad { ptr, i32 }
          cleanup
  %35 = extractvalue { ptr, i32 } %34, 0
  store ptr %35, ptr %11, align 8
  %36 = extractvalue { ptr, i32 } %34, 1
  store i32 %36, ptr %12, align 4
  call void @llvm.lifetime.end.p0(i64 1, ptr %10) #27
  call void @llvm.lifetime.end.p0(i64 1, ptr %9) #27
  %37 = load i1, ptr %13, align 1
  br i1 %37, label %38, label %39

38:                                               ; preds = %33
  call void @__cxa_free_exception(ptr %23) #27
  br label %39

39:                                               ; preds = %38, %33
  call void @llvm.lifetime.end.p0(i64 8, ptr %7) #27
  br label %46

40:                                               ; preds = %3
  store i1 false, ptr %14, align 1
  %41 = load ptr, ptr %7, align 8, !tbaa !80
  call void @_ZN3fmt3v1113buffered_fileC2EP8_IO_FILE(ptr noundef nonnull align 8 dereferenceable(8) %0, ptr noundef %41)
  %42 = getelementptr inbounds nuw %"class.fmt::v11::file", ptr %15, i32 0, i32 0
  store i32 -1, ptr %42, align 4, !tbaa !40
  store i1 true, ptr %14, align 1
  %43 = load i1, ptr %14, align 1
  br i1 %43, label %45, label %44

44:                                               ; preds = %40
  call void @_ZN3fmt3v1113buffered_fileD1Ev(ptr noundef nonnull align 8 dereferenceable(8) %0) #27
  br label %45

45:                                               ; preds = %44, %40
  call void @llvm.lifetime.end.p0(i64 8, ptr %7) #27
  ret void

46:                                               ; preds = %39
  %47 = load ptr, ptr %11, align 8
  %48 = load i32, ptr %12, align 4
  %49 = insertvalue { ptr, i32 } poison, ptr %47, 0
  %50 = insertvalue { ptr, i32 } %49, i32 %48, 1
  resume { ptr, i32 } %50

51:                                               ; preds = %32
  unreachable
}