; Function Attrs: mustprogress uwtable
define hidden void @_ZN3fmt3v114file6fdopenEPKc(ptr dead_on_unwind noalias writable writeonly sret(%"class.fmt::v11::buffered_file") align 8 captures(none) %0, ptr noundef nonnull align 4 captures(none) dereferenceable(4) %1, ptr noundef readonly captures(none) %2) local_unnamed_addr #5 align 2 personality ptr @__gxx_personality_v0 {
  %4 = load i32, ptr %1, align 4, !tbaa !34
  %5 = tail call noalias ptr @fdopen(i32 noundef %4, ptr noundef %2) #32
  %.not = icmp eq ptr %5, null
  br i1 %.not, label %6, label %13

6:                                                ; preds = %3
  %7 = tail call ptr @__cxa_allocate_exception(i64 32) #32
  %8 = tail call ptr @__errno_location() #31
  %9 = load i32, ptr %8, align 4, !tbaa !10
  invoke void @_ZN3fmt3v1112system_errorIJEEESt12system_erroriNS0_7fstringIJDpT_EE1tEDpOS4_(ptr dead_on_unwind writable sret(%"class.std::system_error") align 8 %7, i32 noundef %9, ptr nonnull @.str.53, i64 44)
          to label %10 unwind label %11

10:                                               ; preds = %6
  tail call void @__cxa_throw(ptr %7, ptr nonnull @_ZTISt12system_error, ptr nonnull @_ZNSt12system_errorD1Ev) #35
  unreachable

11:                                               ; preds = %6
  %12 = landingpad { ptr, i32 }
          cleanup
  tail call void @__cxa_free_exception(ptr %7) #32
  resume { ptr, i32 } %12

13:                                               ; preds = %3
  store ptr %5, ptr %0, align 8, !tbaa !4
  store i32 -1, ptr %1, align 4, !tbaa !34
  ret void
}